; Function Attrs: nounwind uwtable
define ptr @l_Lean_Meta_substCore___lambda__10___boxed(ptr noundef %0, ptr noundef %1, ptr noundef %2, ptr noundef %3, ptr noundef %4, ptr noundef %5, ptr noundef %6, ptr noundef %7, ptr noundef %8, ptr noundef %9, ptr noundef %10, ptr noundef %11, ptr noundef %12, ptr noundef %13, ptr noundef %14, ptr noundef %15) local_unnamed_addr #0 {
  %17 = ptrtoint ptr %3 to i64
  %18 = lshr i64 %17, 1
  %19 = trunc i64 %18 to i8
  %20 = and i64 %17, 1
  %.not = icmp eq i64 %20, 0
  br i1 %.not, label %21, label %lean_dec.exit31

21:                                               ; preds = %16
  %22 = load i32, ptr %3, align 4, !tbaa !5
  %23 = icmp sgt i32 %22, 1
  br i1 %23, label %24, label %26, !prof !10

24:                                               ; preds = %21
  %25 = add nsw i32 %22, -1
  store i32 %25, ptr %3, align 4, !tbaa !5
  br label %lean_dec.exit31

26:                                               ; preds = %21
  %.not.i = icmp eq i32 %22, 0
  br i1 %.not.i, label %lean_dec.exit31, label %27

27:                                               ; preds = %26
  tail call void @lean_dec_ref_cold(ptr noundef nonnull %3) #4
  br label %lean_dec.exit31

lean_dec.exit31:                                  ; preds = %27, %26, %24, %16
  %28 = tail call ptr @l_Lean_Meta_substCore___lambda__10(ptr noundef %0, ptr noundef %1, ptr noundef %2, i8 noundef zeroext %19, ptr noundef %4, ptr noundef %5, ptr noundef %6, ptr noundef %7, ptr noundef %8, ptr noundef %9, ptr poison, ptr poison, ptr poison, ptr poison, ptr poison, ptr noundef %15)
  %29 = ptrtoint ptr %14 to i64
  %30 = and i64 %29, 1
  %.not46 = icmp eq i64 %30, 0
  br i1 %.not46, label %31, label %lean_dec.exit30

31:                                               ; preds = %lean_dec.exit31
  %32 = load i32, ptr %14, align 4, !tbaa !5
  %33 = icmp sgt i32 %32, 1
  br i1 %33, label %34, label %36, !prof !10

34:                                               ; preds = %31
  %35 = add nsw i32 %32, -1
  store i32 %35, ptr %14, align 4, !tbaa !5
  br label %lean_dec.exit30

36:                                               ; preds = %31
  %.not.i32 = icmp eq i32 %32, 0
  br i1 %.not.i32, label %lean_dec.exit30, label %37

37:                                               ; preds = %36
  tail call void @lean_dec_ref_cold(ptr noundef nonnull %14) #4
  br label %lean_dec.exit30

lean_dec.exit30:                                  ; preds = %37, %36, %34, %lean_dec.exit31
  %38 = ptrtoint ptr %13 to i64
  %39 = and i64 %38, 1
  %.not47 = icmp eq i64 %39, 0
  br i1 %.not47, label %40, label %lean_dec.exit29

40:                                               ; preds = %lean_dec.exit30
  %41 = load i32, ptr %13, align 4, !tbaa !5
  %42 = icmp sgt i32 %41, 1
  br i1 %42, label %43, label %45, !prof !10

43:                                               ; preds = %40
  %44 = add nsw i32 %41, -1
  store i32 %44, ptr %13, align 4, !tbaa !5
  br label %lean_dec.exit29

45:                                               ; preds = %40
  %.not.i34 = icmp eq i32 %41, 0
  br i1 %.not.i34, label %lean_dec.exit29, label %46

46:                                               ; preds = %45
  tail call void @lean_dec_ref_cold(ptr noundef nonnull %13) #4
  br label %lean_dec.exit29

lean_dec.exit29:                                  ; preds = %46, %45, %43, %lean_dec.exit30
  %47 = ptrtoint ptr %12 to i64
  %48 = and i64 %47, 1
  %.not48 = icmp eq i64 %48, 0
  br i1 %.not48, label %49, label %lean_dec.exit28

49:                                               ; preds = %lean_dec.exit29
  %50 = load i32, ptr %12, align 4, !tbaa !5
  %51 = icmp sgt i32 %50, 1
  br i1 %51, label %52, label %54, !prof !10

52:                                               ; preds = %49
  %53 = add nsw i32 %50, -1
  store i32 %53, ptr %12, align 4, !tbaa !5
  br label %lean_dec.exit28

54:                                               ; preds = %49
  %.not.i36 = icmp eq i32 %50, 0
  br i1 %.not.i36, label %lean_dec.exit28, label %55

55:                                               ; preds = %54
  tail call void @lean_dec_ref_cold(ptr noundef nonnull %12) #4
  br label %lean_dec.exit28

lean_dec.exit28:                                  ; preds = %55, %54, %52, %lean_dec.exit29
  %56 = ptrtoint ptr %11 to i64
  %57 = and i64 %56, 1
  %.not49 = icmp eq i64 %57, 0
  br i1 %.not49, label %58, label %lean_dec.exit27

58:                                               ; preds = %lean_dec.exit28
  %59 = load i32, ptr %11, align 4, !tbaa !5
  %60 = icmp sgt i32 %59, 1
  br i1 %60, label %61, label %63, !prof !10

61:                                               ; preds = %58
  %62 = add nsw i32 %59, -1
  store i32 %62, ptr %11, align 4, !tbaa !5
  br label %lean_dec.exit27

63:                                               ; preds = %58
  %.not.i38 = icmp eq i32 %59, 0
  br i1 %.not.i38, label %lean_dec.exit27, label %64

64:                                               ; preds = %63
  tail call void @lean_dec_ref_cold(ptr noundef nonnull %11) #4
  br label %lean_dec.exit27

lean_dec.exit27:                                  ; preds = %64, %63, %61, %lean_dec.exit28
  %65 = ptrtoint ptr %10 to i64
  %66 = and i64 %65, 1
  %.not50 = icmp eq i64 %66, 0
  br i1 %.not50, label %67, label %lean_dec.exit26

67:                                               ; preds = %lean_dec.exit27
  %68 = load i32, ptr %10, align 4, !tbaa !5
  %69 = icmp sgt i32 %68, 1
  br i1 %69, label %70, label %72, !prof !10

70:                                               ; preds = %67
  %71 = add nsw i32 %68, -1
  store i32 %71, ptr %10, align 4, !tbaa !5
  br label %lean_dec.exit26

72:                                               ; preds = %67
  %.not.i40 = icmp eq i32 %68, 0
  br i1 %.not.i40, label %lean_dec.exit26, label %73

73:                                               ; preds = %72
  tail call void @lean_dec_ref_cold(ptr noundef nonnull %10) #4
  br label %lean_dec.exit26

lean_dec.exit26:                                  ; preds = %73, %72, %70, %lean_dec.exit27
  %74 = ptrtoint ptr %1 to i64
  %75 = and i64 %74, 1
  %.not51 = icmp eq i64 %75, 0
  br i1 %.not51, label %76, label %lean_dec.exit25

76:                                               ; preds = %lean_dec.exit26
  %77 = load i32, ptr %1, align 4, !tbaa !5
  %78 = icmp sgt i32 %77, 1
  br i1 %78, label %79, label %81, !prof !10

79:                                               ; preds = %76
  %80 = add nsw i32 %77, -1
  store i32 %80, ptr %1, align 4, !tbaa !5
  br label %lean_dec.exit25

81:                                               ; preds = %76
  %.not.i42 = icmp eq i32 %77, 0
  br i1 %.not.i42, label %lean_dec.exit25, label %82

82:                                               ; preds = %81
  tail call void @lean_dec_ref_cold(ptr noundef nonnull %1) #4
  br label %lean_dec.exit25

lean_dec.exit25:                                  ; preds = %82, %81, %79, %lean_dec.exit26
  %83 = ptrtoint ptr %0 to i64
  %84 = and i64 %83, 1
  %.not52 = icmp eq i64 %84, 0
  br i1 %.not52, label %85, label %lean_dec.exit

85:                                               ; preds = %lean_dec.exit25
  %86 = load i32, ptr %0, align 4, !tbaa !5
  %87 = icmp sgt i32 %86, 1
  br i1 %87, label %88, label %90, !prof !10

88:                                               ; preds = %85
  %89 = add nsw i32 %86, -1
  store i32 %89, ptr %0, align 4, !tbaa !5
  br label %lean_dec.exit

90:                                               ; preds = %85
  %.not.i44 = icmp eq i32 %86, 0
  br i1 %.not.i44, label %lean_dec.exit, label %91

91:                                               ; preds = %90
  tail call void @lean_dec_ref_cold(ptr noundef nonnull %0) #4
  br label %lean_dec.exit

lean_dec.exit:                                    ; preds = %91, %90, %88, %lean_dec.exit25
  ret ptr %28
}